; Function Attrs: mustprogress uwtable
define void @_ZNK2cv7MatExpr5crossERKNS_3MatE(ptr dead_on_unwind noalias writable sret(%"class.cv::Mat") align 8 %0, ptr noundef nonnull align 8 dereferenceable(352) %1, ptr noundef nonnull align 8 dereferenceable(96) %2) local_unnamed_addr #8 align 2 personality ptr @__gxx_personality_v0 {
  %4 = alloca %"class.cv::Mat", align 8
  %5 = alloca %"class.cv::_InputArray", align 8
  call void @_ZN2cv3MatC1Ev(ptr noundef nonnull align 8 dereferenceable(96) %4) #21
  %6 = load ptr, ptr %1, align 8, !noalias !16
  %7 = load ptr, ptr %6, align 8
  %8 = getelementptr inbounds i8, ptr %7, i64 24
  %9 = load ptr, ptr %8, align 8
  invoke void %9(ptr noundef nonnull align 8 dereferenceable(8) %6, ptr noundef nonnull align 8 dereferenceable(352) %1, ptr noundef nonnull align 8 dereferenceable(96) %4, i32 noundef -1)
          to label %12 unwind label %10

common.resume:                                    ; preds = %17, %10
  %common.resume.op = phi { ptr, i32 } [ %11, %10 ], [ %18, %17 ]
  call void @_ZN2cv3MatD1Ev(ptr noundef nonnull align 8 dereferenceable(96) %4) #21
  resume { ptr, i32 } %common.resume.op

10:                                               ; preds = %3
  %11 = landingpad { ptr, i32 }
          cleanup
  br label %common.resume

12:                                               ; preds = %3
  %13 = getelementptr inbounds i8, ptr %5, i64 16
  store i32 0, ptr %13, align 8
  %14 = getelementptr inbounds i8, ptr %5, i64 20
  store i32 0, ptr %14, align 4
  store i32 16842752, ptr %5, align 8
  %15 = getelementptr inbounds i8, ptr %5, i64 8
  store ptr %2, ptr %15, align 8
  invoke void @_ZNK2cv3Mat5crossERKNS_11_InputArrayE(ptr dead_on_unwind writable sret(%"class.cv::Mat") align 8 %0, ptr noundef nonnull align 8 dereferenceable(96) %4, ptr noundef nonnull align 8 dereferenceable(24) %5)
          to label %16 unwind label %17

16:                                               ; preds = %12
  call void @_ZN2cv3MatD1Ev(ptr noundef nonnull align 8 dereferenceable(96) %4) #21
  ret void

17:                                               ; preds = %12
  %18 = landingpad { ptr, i32 }
          cleanup
  br label %common.resume
}